target datalayout = "e-m:e-p270:32:32-p271:32:32-p272:64:64-i64:64-i128:128-f80:128-n8:16:32:64-S128"
target triple = "x86_64-pc-linux-gnu"

%struct.DdManager = type { %struct.DdNode, ptr, ptr, ptr, ptr, ptr, ptr, ptr, i32, i32, double, double, double, i32, i32, i32, i32, i32, i32, ptr, ptr, %struct.DdSubtable, i32, i32, i32, i32, i32, i32, i32, double, i32, i32, i32, ptr, i64, double, i32, ptr, ptr, ptr, ptr, ptr, ptr, ptr, i32, ptr, ptr, ptr, ptr, ptr, ptr, i32, i32, i32, double, i32, i32, i32, i32, double, double, i32, i32, i32, i32, i32, i32, i32, i32, i32, ptr, ptr, i32, i32, i32, i32, i32, i32, ptr, ptr, ptr, ptr, ptr, ptr, ptr, ptr, i32, i64, i64, i64, i32, i64, i64, double, double, double, double, double, double, i32, ptr, ptr, i64 }
%struct.DdNode = type { i32, i32, ptr, %union.anon, i64 }
%union.anon = type { %struct.DdChildren }
%struct.DdChildren = type { ptr, ptr }
%struct.DdSubtable = type { ptr, i32, i32, i32, i32, i32, i32, i32, i32, i32, i32, i32 }

; Function Attrs: nounwind uwtable
define internal i32 @ddPermuteWindow3(ptr noundef %0, i32 noundef %1) #0 {
  %3 = alloca i32, align 4
  %4 = alloca ptr, align 8
  %5 = alloca i32, align 4
  %6 = alloca i32, align 4
  %7 = alloca i32, align 4
  %8 = alloca i32, align 4
  %9 = alloca i32, align 4
  %10 = alloca i32, align 4
  %11 = alloca i32, align 4
  store ptr %0, ptr %4, align 8, !tbaa !3
  store i32 %1, ptr %5, align 4, !tbaa !8
  call void @llvm.lifetime.start.p0(i64 4, ptr %6) #5
  call void @llvm.lifetime.start.p0(i64 4, ptr %7) #5
  call void @llvm.lifetime.start.p0(i64 4, ptr %8) #5
  call void @llvm.lifetime.start.p0(i64 4, ptr %9) #5
  call void @llvm.lifetime.start.p0(i64 4, ptr %10) #5
  %12 = load ptr, ptr %4, align 8, !tbaa !3
  %13 = getelementptr inbounds nuw %struct.DdManager, ptr %12, i32 0, i32 23
  %14 = load i32, ptr %13, align 4, !tbaa !10
  %15 = load ptr, ptr %4, align 8, !tbaa !3
  %16 = getelementptr inbounds nuw %struct.DdManager, ptr %15, i32 0, i32 36
  %17 = load i32, ptr %16, align 8, !tbaa !27
  %18 = sub i32 %14, %17
  store i32 %18, ptr %8, align 4, !tbaa !8
  %19 = load i32, ptr %5, align 4, !tbaa !8
  %20 = add nsw i32 %19, 1
  store i32 %20, ptr %6, align 4, !tbaa !8
  %21 = load i32, ptr %6, align 4, !tbaa !8
  %22 = add nsw i32 %21, 1
  store i32 %22, ptr %7, align 4, !tbaa !8
  store i32 1, ptr %10, align 4, !tbaa !8
  %23 = load ptr, ptr %4, align 8, !tbaa !3
  %24 = load i32, ptr %5, align 4, !tbaa !8
  %25 = load i32, ptr %6, align 4, !tbaa !8
  %26 = call i32 @cuddSwapInPlace(ptr noundef %23, i32 noundef %24, i32 noundef %25)
  store i32 %26, ptr %9, align 4, !tbaa !8
  %27 = load i32, ptr %9, align 4, !tbaa !8
  %28 = load i32, ptr %8, align 4, !tbaa !8
  %29 = icmp slt i32 %27, %28
  br i1 %29, label %30, label %36

30:                                               ; preds = %2
  %31 = load i32, ptr %9, align 4, !tbaa !8
  %32 = icmp eq i32 %31, 0
  br i1 %32, label %33, label %34

33:                                               ; preds = %30
  store i32 0, ptr %3, align 4
  store i32 1, ptr %11, align 4
  br label %137

34:                                               ; preds = %30
  store i32 2, ptr %10, align 4, !tbaa !8
  %35 = load i32, ptr %9, align 4, !tbaa !8
  store i32 %35, ptr %8, align 4, !tbaa !8
  br label %36

36:                                               ; preds = %34, %2
  %37 = load ptr, ptr %4, align 8, !tbaa !3
  %38 = load i32, ptr %6, align 4, !tbaa !8
  %39 = load i32, ptr %7, align 4, !tbaa !8
  %40 = call i32 @cuddSwapInPlace(ptr noundef %37, i32 noundef %38, i32 noundef %39)
  store i32 %40, ptr %9, align 4, !tbaa !8
  %41 = load i32, ptr %9, align 4, !tbaa !8
  %42 = load i32, ptr %8, align 4, !tbaa !8
  %43 = icmp slt i32 %41, %42
  br i1 %43, label %44, label %50

44:                                               ; preds = %36
  %45 = load i32, ptr %9, align 4, !tbaa !8
  %46 = icmp eq i32 %45, 0
  br i1 %46, label %47, label %48

47:                                               ; preds = %44
  store i32 0, ptr %3, align 4
  store i32 1, ptr %11, align 4
  br label %137

48:                                               ; preds = %44
  store i32 3, ptr %10, align 4, !tbaa !8
  %49 = load i32, ptr %9, align 4, !tbaa !8
  store i32 %49, ptr %8, align 4, !tbaa !8
  br label %50

50:                                               ; preds = %48, %36
  %51 = load ptr, ptr %4, align 8, !tbaa !3
  %52 = load i32, ptr %5, align 4, !tbaa !8
  %53 = load i32, ptr %6, align 4, !tbaa !8
  %54 = call i32 @cuddSwapInPlace(ptr noundef %51, i32 noundef %52, i32 noundef %53)
  store i32 %54, ptr %9, align 4, !tbaa !8
  %55 = load i32, ptr %9, align 4, !tbaa !8
  %56 = load i32, ptr %8, align 4, !tbaa !8
  %57 = icmp slt i32 %55, %56
  br i1 %57, label %58, label %64

58:                                               ; preds = %50
  %59 = load i32, ptr %9, align 4, !tbaa !8
  %60 = icmp eq i32 %59, 0
  br i1 %60, label %61, label %62

61:                                               ; preds = %58
  store i32 0, ptr %3, align 4
  store i32 1, ptr %11, align 4
  br label %137

62:                                               ; preds = %58
  store i32 4, ptr %10, align 4, !tbaa !8
  %63 = load i32, ptr %9, align 4, !tbaa !8
  store i32 %63, ptr %8, align 4, !tbaa !8
  br label %64

64:                                               ; preds = %62, %50
  %65 = load ptr, ptr %4, align 8, !tbaa !3
  %66 = load i32, ptr %6, align 4, !tbaa !8
  %67 = load i32, ptr %7, align 4, !tbaa !8
  %68 = call i32 @cuddSwapInPlace(ptr noundef %65, i32 noundef %66, i32 noundef %67)
  store i32 %68, ptr %9, align 4, !tbaa !8
  %69 = load i32, ptr %9, align 4, !tbaa !8
  %70 = load i32, ptr %8, align 4, !tbaa !8
  %71 = icmp slt i32 %69, %70
  br i1 %71, label %72, label %78

72:                                               ; preds = %64
  %73 = load i32, ptr %9, align 4, !tbaa !8
  %74 = icmp eq i32 %73, 0
  br i1 %74, label %75, label %76

75:                                               ; preds = %72
  store i32 0, ptr %3, align 4
  store i32 1, ptr %11, align 4
  br label %137

76:                                               ; preds = %72
  store i32 5, ptr %10, align 4, !tbaa !8
  %77 = load i32, ptr %9, align 4, !tbaa !8
  store i32 %77, ptr %8, align 4, !tbaa !8
  br label %78

78:                                               ; preds = %76, %64
  %79 = load ptr, ptr %4, align 8, !tbaa !3
  %80 = load i32, ptr %5, align 4, !tbaa !8
  %81 = load i32, ptr %6, align 4, !tbaa !8
  %82 = call i32 @cuddSwapInPlace(ptr noundef %79, i32 noundef %80, i32 noundef %81)
  store i32 %82, ptr %9, align 4, !tbaa !8
  %83 = load i32, ptr %9, align 4, !tbaa !8
  %84 = load i32, ptr %8, align 4, !tbaa !8
  %85 = icmp slt i32 %83, %84
  br i1 %85, label %86, label %92

86:                                               ; preds = %78
  %87 = load i32, ptr %9, align 4, !tbaa !8
  %88 = icmp eq i32 %87, 0
  br i1 %88, label %89, label %90

89:                                               ; preds = %86
  store i32 0, ptr %3, align 4
  store i32 1, ptr %11, align 4
  br label %137

90:                                               ; preds = %86
  store i32 6, ptr %10, align 4, !tbaa !8
  %91 = load i32, ptr %9, align 4, !tbaa !8
  store i32 %91, ptr %8, align 4, !tbaa !8
  br label %92

92:                                               ; preds = %90, %78
  %93 = load i32, ptr %10, align 4, !tbaa !8
  switch i32 %93, label %134 [
    i32 3, label %94
    i32 4, label %102
    i32 1, label %110
    i32 6, label %135
    i32 2, label %118
    i32 5, label %126
  ]

94:                                               ; preds = %92
  %95 = load ptr, ptr %4, align 8, !tbaa !3
  %96 = load i32, ptr %6, align 4, !tbaa !8
  %97 = load i32, ptr %7, align 4, !tbaa !8
  %98 = call i32 @cuddSwapInPlace(ptr noundef %95, i32 noundef %96, i32 noundef %97)
  %99 = icmp ne i32 %98, 0
  br i1 %99, label %101, label %100

100:                                              ; preds = %94
  store i32 0, ptr %3, align 4
  store i32 1, ptr %11, align 4
  br label %137

101:                                              ; preds = %94
  br label %102

102:                                              ; preds = %92, %101
  %103 = load ptr, ptr %4, align 8, !tbaa !3
  %104 = load i32, ptr %5, align 4, !tbaa !8
  %105 = load i32, ptr %6, align 4, !tbaa !8
  %106 = call i32 @cuddSwapInPlace(ptr noundef %103, i32 noundef %104, i32 noundef %105)
  %107 = icmp ne i32 %106, 0
  br i1 %107, label %109, label %108

108:                                              ; preds = %102
  store i32 0, ptr %3, align 4
  store i32 1, ptr %11, align 4
  br label %137

109:                                              ; preds = %102
  br label %110

110:                                              ; preds = %92, %109
  %111 = load ptr, ptr %4, align 8, !tbaa !3
  %112 = load i32, ptr %6, align 4, !tbaa !8
  %113 = load i32, ptr %7, align 4, !tbaa !8
  %114 = call i32 @cuddSwapInPlace(ptr noundef %111, i32 noundef %112, i32 noundef %113)
  %115 = icmp ne i32 %114, 0
  br i1 %115, label %117, label %116

116:                                              ; preds = %110
  store i32 0, ptr %3, align 4
  store i32 1, ptr %11, align 4
  br label %137

117:                                              ; preds = %110
  br label %135

118:                                              ; preds = %92
  %119 = load ptr, ptr %4, align 8, !tbaa !3
  %120 = load i32, ptr %6, align 4, !tbaa !8
  %121 = load i32, ptr %7, align 4, !tbaa !8
  %122 = call i32 @cuddSwapInPlace(ptr noundef %119, i32 noundef %120, i32 noundef %121)
  %123 = icmp ne i32 %122, 0
  br i1 %123, label %125, label %124

124:                                              ; preds = %118
  store i32 0, ptr %3, align 4
  store i32 1, ptr %11, align 4
  br label %137

125:                                              ; preds = %118
  br label %126

126:                                              ; preds = %92, %125
  %127 = load ptr, ptr %4, align 8, !tbaa !3
  %128 = load i32, ptr %5, align 4, !tbaa !8
  %129 = load i32, ptr %6, align 4, !tbaa !8
  %130 = call i32 @cuddSwapInPlace(ptr noundef %127, i32 noundef %128, i32 noundef %129)
  %131 = icmp ne i32 %130, 0
  br i1 %131, label %133, label %132

132:                                              ; preds = %126
  store i32 0, ptr %3, align 4
  store i32 1, ptr %11, align 4
  br label %137

133:                                              ; preds = %126
  br label %135

134:                                              ; preds = %92
  store i32 0, ptr %3, align 4
  store i32 1, ptr %11, align 4
  br label %137

135:                                              ; preds = %133, %117, %92
  %136 = load i32, ptr %10, align 4, !tbaa !8
  store i32 %136, ptr %3, align 4
  store i32 1, ptr %11, align 4
  br label %137

137:                                              ; preds = %135, %134, %132, %124, %116, %108, %100, %89, %75, %61, %47, %33
  call void @llvm.lifetime.end.p0(i64 4, ptr %10) #5
  call void @llvm.lifetime.end.p0(i64 4, ptr %9) #5
  call void @llvm.lifetime.end.p0(i64 4, ptr %8) #5
  call void @llvm.lifetime.end.p0(i64 4, ptr %7) #5
  call void @llvm.lifetime.end.p0(i64 4, ptr %6) #5
  %138 = load i32, ptr %3, align 4
  ret i32 %138
}