; Function Attrs: nounwind uwtable
define internal fastcc range(i32 0, 7) i32 @ddPermuteWindow3(ptr noundef %0, i32 noundef %1) unnamed_addr #0 {
  %3 = getelementptr inbounds nuw i8, ptr %0, i64 228
  %4 = load i32, ptr %3, align 4, !tbaa !3
  %5 = getelementptr inbounds nuw i8, ptr %0, i64 304
  %6 = load i32, ptr %5, align 8, !tbaa !24
  %7 = sub i32 %4, %6
  %8 = add nsw i32 %1, 1
  %9 = add nsw i32 %1, 2
  %10 = tail call i32 @cuddSwapInPlace(ptr noundef %0, i32 noundef %1, i32 noundef %8) #5
  %11 = icmp slt i32 %10, %7
  br i1 %11, label %12, label %14

12:                                               ; preds = %2
  %13 = icmp eq i32 %10, 0
  br i1 %13, label %45, label %14

14:                                               ; preds = %12, %2
  %.056 = phi i32 [ %7, %2 ], [ %10, %12 ]
  %.0 = phi i32 [ 1, %2 ], [ 2, %12 ]
  %15 = tail call i32 @cuddSwapInPlace(ptr noundef nonnull %0, i32 noundef %8, i32 noundef %9) #5
  %16 = icmp slt i32 %15, %.056
  br i1 %16, label %17, label %19

17:                                               ; preds = %14
  %18 = icmp eq i32 %15, 0
  br i1 %18, label %45, label %19

19:                                               ; preds = %17, %14
  %.157 = phi i32 [ %.056, %14 ], [ %15, %17 ]
  %.1 = phi i32 [ %.0, %14 ], [ 3, %17 ]
  %20 = tail call i32 @cuddSwapInPlace(ptr noundef nonnull %0, i32 noundef %1, i32 noundef %8) #5
  %21 = icmp slt i32 %20, %.157
  br i1 %21, label %22, label %24

22:                                               ; preds = %19
  %23 = icmp eq i32 %20, 0
  br i1 %23, label %45, label %24

24:                                               ; preds = %22, %19
  %.258 = phi i32 [ %.157, %19 ], [ %20, %22 ]
  %.2 = phi i32 [ %.1, %19 ], [ 4, %22 ]
  %25 = tail call i32 @cuddSwapInPlace(ptr noundef nonnull %0, i32 noundef %8, i32 noundef %9) #5
  %26 = icmp slt i32 %25, %.258
  br i1 %26, label %27, label %29

27:                                               ; preds = %24
  %28 = icmp eq i32 %25, 0
  br i1 %28, label %45, label %29

29:                                               ; preds = %27, %24
  %.359 = phi i32 [ %.258, %24 ], [ %25, %27 ]
  %.3 = phi i32 [ %.2, %24 ], [ 5, %27 ]
  %30 = tail call i32 @cuddSwapInPlace(ptr noundef nonnull %0, i32 noundef %1, i32 noundef %8) #5
  %31 = icmp slt i32 %30, %.359
  br i1 %31, label %32, label %34

32:                                               ; preds = %29
  %33 = icmp eq i32 %30, 0
  br i1 %33, label %45, label %.thread

34:                                               ; preds = %29
  switch i32 %.3, label %default.unreachable73 [
    i32 3, label %35
    i32 4, label %37
    i32 1, label %39
    i32 5, label %43
    i32 2, label %41
  ]

35:                                               ; preds = %34
  %36 = tail call i32 @cuddSwapInPlace(ptr noundef nonnull %0, i32 noundef %8, i32 noundef %9) #5
  %.not68 = icmp eq i32 %36, 0
  br i1 %.not68, label %45, label %37

37:                                               ; preds = %35, %34
  %38 = tail call i32 @cuddSwapInPlace(ptr noundef nonnull %0, i32 noundef %1, i32 noundef %8) #5
  %.not69 = icmp eq i32 %38, 0
  br i1 %.not69, label %45, label %39

39:                                               ; preds = %37, %34
  %40 = tail call i32 @cuddSwapInPlace(ptr noundef nonnull %0, i32 noundef %8, i32 noundef %9) #5
  %.not70 = icmp eq i32 %40, 0
  br i1 %.not70, label %45, label %.thread

41:                                               ; preds = %34
  %42 = tail call i32 @cuddSwapInPlace(ptr noundef nonnull %0, i32 noundef %8, i32 noundef %9) #5
  %.not = icmp eq i32 %42, 0
  br i1 %.not, label %45, label %43

43:                                               ; preds = %34, %41
  %44 = tail call i32 @cuddSwapInPlace(ptr noundef nonnull %0, i32 noundef %1, i32 noundef %8) #5
  %.not67 = icmp eq i32 %44, 0
  br i1 %.not67, label %45, label %.thread

default.unreachable73:                            ; preds = %34
  unreachable

.thread:                                          ; preds = %32, %43, %39
  %.472 = phi i32 [ %.3, %43 ], [ %.3, %39 ], [ 6, %32 ]
  br label %45

45:                                               ; preds = %43, %41, %39, %37, %35, %32, %27, %22, %17, %12, %.thread
  %.060 = phi i32 [ %.472, %.thread ], [ 0, %12 ], [ 0, %17 ], [ 0, %22 ], [ 0, %27 ], [ 0, %32 ], [ 0, %35 ], [ 0, %37 ], [ 0, %39 ], [ 0, %41 ], [ 0, %43 ]
  ret i32 %.060
}